target datalayout = "e-m:e-p270:32:32-p271:32:32-p272:64:64-i64:64-i128:128-f80:128-n8:16:32:64-S128"
target triple = "x86_64-pc-linux-gnu"

%"class.zmq::fq_t" = type <{ %"class.zmq::array_t", i64, i64, i8, [7 x i8] }>
%"class.zmq::array_t" = type { %"class.std::vector" }
%"class.std::vector" = type { %"struct.std::_Vector_base" }
%"struct.std::_Vector_base" = type { %"struct.std::_Vector_base<zmq::pipe_t *, std::allocator<zmq::pipe_t *>>::_Vector_impl" }
%"struct.std::_Vector_base<zmq::pipe_t *, std::allocator<zmq::pipe_t *>>::_Vector_impl" = type { %"struct.std::_Vector_base<zmq::pipe_t *, std::allocator<zmq::pipe_t *>>::_Vector_impl_data" }
%"struct.std::_Vector_base<zmq::pipe_t *, std::allocator<zmq::pipe_t *>>::_Vector_impl_data" = type { ptr, ptr, ptr }
%"class.zmq::array_item_t" = type <{ ptr, i32, [4 x i8] }>

; Function Attrs: inlinehint mustprogress nounwind uwtable
define linkonce_odr void @_ZSt4swapIPN3zmq6pipe_tEENSt9enable_ifIXsr6__and_ISt6__not_ISt15__is_tuple_likeIT_EESt21is_move_constructibleIS6_ESt18is_move_assignableIS6_EEE5valueEvE4typeERS6_SF_(ptr noundef nonnull align 8 dereferenceable(8) %0, ptr noundef nonnull align 8 dereferenceable(8) %1) #5 comdat {
  %3 = alloca ptr, align 8
  %4 = alloca ptr, align 8
  %5 = alloca ptr, align 8
  store ptr %0, ptr %3, align 8, !tbaa !30
  store ptr %1, ptr %4, align 8, !tbaa !30
  call void @llvm.lifetime.start.p0(i64 8, ptr %5) #14
  %6 = load ptr, ptr %3, align 8, !tbaa !30
  %7 = load ptr, ptr %6, align 8, !tbaa !25
  store ptr %7, ptr %5, align 8, !tbaa !25
  %8 = load ptr, ptr %4, align 8, !tbaa !30
  %9 = load ptr, ptr %8, align 8, !tbaa !25
  %10 = load ptr, ptr %3, align 8, !tbaa !30
  store ptr %9, ptr %10, align 8, !tbaa !25
  %11 = load ptr, ptr %5, align 8, !tbaa !25
  %12 = load ptr, ptr %4, align 8, !tbaa !30
  store ptr %11, ptr %12, align 8, !tbaa !25
  call void @llvm.lifetime.end.p0(i64 8, ptr %5) #14
  ret void
}

; Function Attrs: mustprogress nounwind uwtable
define linkonce_odr void @_ZN3zmq12array_item_tILi1EE15set_array_indexEi(ptr noundef nonnull align 8 dereferenceable(12) %0, i32 noundef %1) #0 comdat align 2 {
  %3 = alloca ptr, align 8
  %4 = alloca i32, align 4
  store ptr %0, ptr %3, align 8, !tbaa !63
  store i32 %1, ptr %4, align 4, !tbaa !31
  %5 = load ptr, ptr %3, align 8
  %6 = load i32, ptr %4, align 4, !tbaa !31
  %7 = getelementptr inbounds nuw %"class.zmq::array_item_t", ptr %5, i32 0, i32 1
  store i32 %6, ptr %7, align 8, !tbaa !65
  ret void
}

; Function Attrs: mustprogress nounwind uwtable
define linkonce_odr noundef nonnull align 8 dereferenceable(8) ptr @_ZNSt6vectorIPN3zmq6pipe_tESaIS2_EEixEm(ptr noundef nonnull align 8 dereferenceable(24) %0, i64 noundef %1) #0 comdat align 2 {
  %3 = alloca ptr, align 8
  %4 = alloca i64, align 8
  store ptr %0, ptr %3, align 8, !tbaa !41
  store i64 %1, ptr %4, align 8, !tbaa !27
  %5 = load ptr, ptr %3, align 8
  %6 = getelementptr inbounds nuw %"struct.std::_Vector_base", ptr %5, i32 0, i32 0
  %7 = getelementptr inbounds nuw %"struct.std::_Vector_base<zmq::pipe_t *, std::allocator<zmq::pipe_t *>>::_Vector_impl_data", ptr %6, i32 0, i32 0
  %8 = load ptr, ptr %7, align 8, !tbaa !51
  %9 = load i64, ptr %4, align 8, !tbaa !27
  %10 = getelementptr inbounds nuw ptr, ptr %8, i64 %9
  ret ptr %10
}

; Function Attrs: mustprogress nounwind uwtable
define linkonce_odr void @_ZN3zmq7array_tINS_6pipe_tELi1EE4swapEmm(ptr noundef nonnull align 8 dereferenceable(24) %0, i64 noundef %1, i64 noundef %2) #0 comdat align 2 {
  %4 = alloca ptr, align 8
  %5 = alloca i64, align 8
  %6 = alloca i64, align 8
  store ptr %0, ptr %4, align 8, !tbaa !21
  store i64 %1, ptr %5, align 8, !tbaa !27
  store i64 %2, ptr %6, align 8, !tbaa !27
  %7 = load ptr, ptr %4, align 8
  %8 = getelementptr inbounds nuw %"class.zmq::array_t", ptr %7, i32 0, i32 0
  %9 = load i64, ptr %5, align 8, !tbaa !27
  %10 = call noundef nonnull align 8 dereferenceable(8) ptr @_ZNSt6vectorIPN3zmq6pipe_tESaIS2_EEixEm(ptr noundef nonnull align 8 dereferenceable(24) %8, i64 noundef %9) #14
  %11 = load ptr, ptr %10, align 8, !tbaa !25
  %12 = icmp ne ptr %11, null
  br i1 %12, label %13, label %25

13:                                               ; preds = %3
  %14 = getelementptr inbounds nuw %"class.zmq::array_t", ptr %7, i32 0, i32 0
  %15 = load i64, ptr %5, align 8, !tbaa !27
  %16 = call noundef nonnull align 8 dereferenceable(8) ptr @_ZNSt6vectorIPN3zmq6pipe_tESaIS2_EEixEm(ptr noundef nonnull align 8 dereferenceable(24) %14, i64 noundef %15) #14
  %17 = load ptr, ptr %16, align 8, !tbaa !25
  %18 = icmp eq ptr %17, null
  br i1 %18, label %21, label %19

19:                                               ; preds = %13
  %20 = getelementptr inbounds i8, ptr %17, i64 24
  br label %21

21:                                               ; preds = %19, %13
  %22 = phi ptr [ %20, %19 ], [ null, %13 ]
  %23 = load i64, ptr %6, align 8, !tbaa !27
  %24 = trunc i64 %23 to i32
  call void @_ZN3zmq12array_item_tILi1EE15set_array_indexEi(ptr noundef nonnull align 8 dereferenceable(12) %22, i32 noundef %24)
  br label %25

25:                                               ; preds = %21, %3
  %26 = getelementptr inbounds nuw %"class.zmq::array_t", ptr %7, i32 0, i32 0
  %27 = load i64, ptr %6, align 8, !tbaa !27
  %28 = call noundef nonnull align 8 dereferenceable(8) ptr @_ZNSt6vectorIPN3zmq6pipe_tESaIS2_EEixEm(ptr noundef nonnull align 8 dereferenceable(24) %26, i64 noundef %27) #14
  %29 = load ptr, ptr %28, align 8, !tbaa !25
  %30 = icmp ne ptr %29, null
  br i1 %30, label %31, label %43

31:                                               ; preds = %25
  %32 = getelementptr inbounds nuw %"class.zmq::array_t", ptr %7, i32 0, i32 0
  %33 = load i64, ptr %6, align 8, !tbaa !27
  %34 = call noundef nonnull align 8 dereferenceable(8) ptr @_ZNSt6vectorIPN3zmq6pipe_tESaIS2_EEixEm(ptr noundef nonnull align 8 dereferenceable(24) %32, i64 noundef %33) #14
  %35 = load ptr, ptr %34, align 8, !tbaa !25
  %36 = icmp eq ptr %35, null
  br i1 %36, label %39, label %37

37:                                               ; preds = %31
  %38 = getelementptr inbounds i8, ptr %35, i64 24
  br label %39

39:                                               ; preds = %37, %31
  %40 = phi ptr [ %38, %37 ], [ null, %31 ]
  %41 = load i64, ptr %5, align 8, !tbaa !27
  %42 = trunc i64 %41 to i32
  call void @_ZN3zmq12array_item_tILi1EE15set_array_indexEi(ptr noundef nonnull align 8 dereferenceable(12) %40, i32 noundef %42)
  br label %43

43:                                               ; preds = %39, %25
  %44 = getelementptr inbounds nuw %"class.zmq::array_t", ptr %7, i32 0, i32 0
  %45 = load i64, ptr %5, align 8, !tbaa !27
  %46 = call noundef nonnull align 8 dereferenceable(8) ptr @_ZNSt6vectorIPN3zmq6pipe_tESaIS2_EEixEm(ptr noundef nonnull align 8 dereferenceable(24) %44, i64 noundef %45) #14
  %47 = getelementptr inbounds nuw %"class.zmq::array_t", ptr %7, i32 0, i32 0
  %48 = load i64, ptr %6, align 8, !tbaa !27
  %49 = call noundef nonnull align 8 dereferenceable(8) ptr @_ZNSt6vectorIPN3zmq6pipe_tESaIS2_EEixEm(ptr noundef nonnull align 8 dereferenceable(24) %47, i64 noundef %48) #14
  call void @_ZSt4swapIPN3zmq6pipe_tEENSt9enable_ifIXsr6__and_ISt6__not_ISt15__is_tuple_likeIT_EESt21is_move_constructibleIS6_ESt18is_move_assignableIS6_EEE5valueEvE4typeERS6_SF_(ptr noundef nonnull align 8 dereferenceable(8) %46, ptr noundef nonnull align 8 dereferenceable(8) %49) #14
  ret void
}

; Function Attrs: mustprogress nounwind uwtable
define linkonce_odr noundef nonnull align 8 dereferenceable(8) ptr @_ZN3zmq7array_tINS_6pipe_tELi1EEixEm(ptr noundef nonnull align 8 dereferenceable(24) %0, i64 noundef %1) #0 comdat align 2 {
  %3 = alloca ptr, align 8
  %4 = alloca i64, align 8
  store ptr %0, ptr %3, align 8, !tbaa !21
  store i64 %1, ptr %4, align 8, !tbaa !27
  %5 = load ptr, ptr %3, align 8
  %6 = getelementptr inbounds nuw %"class.zmq::array_t", ptr %5, i32 0, i32 0
  %7 = load i64, ptr %4, align 8, !tbaa !27
  %8 = call noundef nonnull align 8 dereferenceable(8) ptr @_ZNSt6vectorIPN3zmq6pipe_tESaIS2_EEixEm(ptr noundef nonnull align 8 dereferenceable(24) %6, i64 noundef %7) #14
  ret ptr %8
}

; Function Attrs: mustprogress uwtable
define noundef zeroext i1 @_ZN3zmq4fq_t6has_inEv(ptr noundef nonnull align 8 dereferenceable(41) %0) #6 align 2 {
  %2 = alloca i1, align 1
  %3 = alloca ptr, align 8
  store ptr %0, ptr %3, align 8, !tbaa !3
  %4 = load ptr, ptr %3, align 8
  %5 = getelementptr inbounds nuw %"class.zmq::fq_t", ptr %4, i32 0, i32 3
  %6 = load i8, ptr %5, align 8, !tbaa !20, !range !36, !noundef !37
  %7 = trunc i8 %6 to i1
  br i1 %7, label %8, label %9

8:                                                ; preds = %1
  store i1 true, ptr %2, align 1
  br label %40

9:                                                ; preds = %1
  br label %10

10:                                               ; preds = %38, %9
  %11 = getelementptr inbounds nuw %"class.zmq::fq_t", ptr %4, i32 0, i32 1
  %12 = load i64, ptr %11, align 8, !tbaa !8
  %13 = icmp ugt i64 %12, 0
  br i1 %13, label %14, label %39

14:                                               ; preds = %10
  %15 = getelementptr inbounds nuw %"class.zmq::fq_t", ptr %4, i32 0, i32 0
  %16 = getelementptr inbounds nuw %"class.zmq::fq_t", ptr %4, i32 0, i32 2
  %17 = load i64, ptr %16, align 8, !tbaa !19
  %18 = call noundef nonnull align 8 dereferenceable(8) ptr @_ZN3zmq7array_tINS_6pipe_tELi1EEixEm(ptr noundef nonnull align 8 dereferenceable(24) %15, i64 noundef %17)
  %19 = load ptr, ptr %18, align 8, !tbaa !25
  %20 = call noundef zeroext i1 @_ZN3zmq6pipe_t10check_readEv(ptr noundef nonnull align 8 dereferenceable(328) %19)
  br i1 %20, label %21, label %22

21:                                               ; preds = %14
  store i1 true, ptr %2, align 1
  br label %40

22:                                               ; preds = %14
  %23 = getelementptr inbounds nuw %"class.zmq::fq_t", ptr %4, i32 0, i32 1
  %24 = load i64, ptr %23, align 8, !tbaa !8
  %25 = add i64 %24, -1
  store i64 %25, ptr %23, align 8, !tbaa !8
  %26 = getelementptr inbounds nuw %"class.zmq::fq_t", ptr %4, i32 0, i32 0
  %27 = getelementptr inbounds nuw %"class.zmq::fq_t", ptr %4, i32 0, i32 2
  %28 = load i64, ptr %27, align 8, !tbaa !19
  %29 = getelementptr inbounds nuw %"class.zmq::fq_t", ptr %4, i32 0, i32 1
  %30 = load i64, ptr %29, align 8, !tbaa !8
  call void @_ZN3zmq7array_tINS_6pipe_tELi1EE4swapEmm(ptr noundef nonnull align 8 dereferenceable(24) %26, i64 noundef %28, i64 noundef %30)
  %31 = getelementptr inbounds nuw %"class.zmq::fq_t", ptr %4, i32 0, i32 2
  %32 = load i64, ptr %31, align 8, !tbaa !19
  %33 = getelementptr inbounds nuw %"class.zmq::fq_t", ptr %4, i32 0, i32 1
  %34 = load i64, ptr %33, align 8, !tbaa !8
  %35 = icmp eq i64 %32, %34
  br i1 %35, label %36, label %38

36:                                               ; preds = %22
  %37 = getelementptr inbounds nuw %"class.zmq::fq_t", ptr %4, i32 0, i32 2
  store i64 0, ptr %37, align 8, !tbaa !19
  br label %38

38:                                               ; preds = %36, %22
  br label %10, !llvm.loop !40

39:                                               ; preds = %10
  store i1 false, ptr %2, align 1
  br label %40

40:                                               ; preds = %39, %21, %8
  %41 = load i1, ptr %2, align 1
  ret i1 %41
}